target datalayout = "e-m:e-p270:32:32-p271:32:32-p272:64:64-i64:64-i128:128-f80:128-n8:16:32:64-S128"
target triple = "x86_64-pc-linux-gnu"

%"struct.cv::CvCaptureCAM_V4L" = type <{ %"class.cv::IVideoCapture", i32, i8, i8, [2 x i8], i32, i8, [3 x i8], %"class.std::__cxx11::basic_string", %"class.cv::Mat", i32, i32, i32, i32, i32, i32, i32, i8, i8, [2 x i8], i32, i8, [3 x i8], [11 x %"struct.cv::Buffer"], %struct.v4l2_capability, %struct.v4l2_input, %struct.v4l2_format, %struct.v4l2_requestbuffers, i32, i8, [7 x i8], %struct.timeval, i8, [7 x i8] }>
%"class.cv::IVideoCapture" = type { ptr }
%"class.std::__cxx11::basic_string" = type { %"struct.std::__cxx11::basic_string<char>::_Alloc_hider", i64, %union.anon }
%"struct.std::__cxx11::basic_string<char>::_Alloc_hider" = type { ptr }
%union.anon = type { i64, [8 x i8] }
%"class.cv::Mat" = type { i32, i32, i32, i32, ptr, ptr, ptr, ptr, ptr, ptr, %"struct.cv::MatSize", %"struct.cv::MatStep" }
%"struct.cv::MatSize" = type { ptr }
%"struct.cv::MatStep" = type { ptr, [2 x i64] }
%"struct.cv::Buffer" = type { [8 x %"struct.cv::Memory"], [8 x %struct.v4l2_plane], i32, %struct.v4l2_buffer }
%"struct.cv::Memory" = type { ptr, i64 }
%struct.v4l2_plane = type { i32, i32, %union.anon.0, i32, [11 x i32] }
%union.anon.0 = type { i64 }
%struct.v4l2_buffer = type { i32, i32, i32, i32, i32, %struct.timeval, %struct.v4l2_timecode, i32, i32, %union.anon.1, i32, i32, %union.anon.2 }
%struct.v4l2_timecode = type { i32, i32, i8, i8, i8, i8, [4 x i8] }
%union.anon.1 = type { i64 }
%union.anon.2 = type { i32 }
%struct.v4l2_capability = type { [16 x i8], [32 x i8], [32 x i8], i32, i32, i32, [3 x i32] }
%struct.v4l2_input = type { i32, [32 x i8], i32, i32, i32, i64, i32, i32, [3 x i32] }
%struct.v4l2_format = type { i32, %union.anon.3 }
%union.anon.3 = type { %struct.v4l2_window, [144 x i8] }
%struct.v4l2_window = type { %struct.v4l2_rect, i32, i32, ptr, i32, ptr, i8 }
%struct.v4l2_rect = type { i32, i32, i32, i32 }
%struct.v4l2_requestbuffers = type { i32, i32, i32, i32, [1 x i32] }
%struct.timeval = type { i64, i64 }

; Function Attrs: mustprogress nounwind uwtable
define hidden noundef zeroext i1 @_ZNK2cv16CvCaptureCAM_V4L16convertableToRgbEv(ptr noundef nonnull align 8 dereferenceable(8736) %0) #6 align 2 {
  %2 = alloca i1, align 1
  %3 = alloca ptr, align 8
  store ptr %0, ptr %3, align 8, !tbaa !3
  %4 = load ptr, ptr %3, align 8
  %5 = getelementptr inbounds nuw %"struct.cv::CvCaptureCAM_V4L", ptr %4, i32 0, i32 10
  %6 = load i32, ptr %5, align 8, !tbaa !37
  switch i32 %6, label %8 [
    i32 842094169, label %7
    i32 842093913, label %7
    i32 842094158, label %7
    i32 825382478, label %7
    i32 1345401140, label %7
    i32 1196444237, label %7
    i32 1195724874, label %7
    i32 1448695129, label %7
    i32 1498831189, label %7
    i32 825770306, label %7
    i32 808532307, label %7
    i32 1196573255, label %7
    i32 1195528775, label %7
    i32 859981650, label %7
    i32 540422489, label %7
    i32 -1607061159, label %7
    i32 540029273, label %7
    i32 1497715271, label %7
    i32 861030210, label %7
    i32 875713112, label %7
    i32 875713089, label %7
  ]

7:                                                ; preds = %1, %1, %1, %1, %1, %1, %1, %1, %1, %1, %1, %1, %1, %1, %1, %1, %1, %1, %1, %1, %1
  store i1 true, ptr %2, align 1
  br label %10

8:                                                ; preds = %1
  br label %9

9:                                                ; preds = %8
  store i1 false, ptr %2, align 1
  br label %10

10:                                               ; preds = %9, %7
  %11 = load i1, ptr %2, align 1
  ret i1 %11
}