; Function Attrs: mustprogress nofree norecurse nosync nounwind willreturn memory(argmem: read) uwtable
define hidden noundef zeroext i1 @_ZNK2cv16CvCaptureCAM_V4L16convertableToRgbEv(ptr noundef nonnull readonly align 8 captures(none) dereferenceable(8736) %0) local_unnamed_addr #10 align 2 {
  %2 = getelementptr inbounds nuw i8, ptr %0, i64 152
  %3 = load i32, ptr %2, align 8, !tbaa !111
  switch i32 %3, label %4 [
    i32 842094169, label %5
    i32 842093913, label %5
    i32 842094158, label %5
    i32 825382478, label %5
    i32 1345401140, label %5
    i32 1196444237, label %5
    i32 1195724874, label %5
    i32 1448695129, label %5
    i32 1498831189, label %5
    i32 825770306, label %5
    i32 808532307, label %5
    i32 1196573255, label %5
    i32 1195528775, label %5
    i32 859981650, label %5
    i32 540422489, label %5
    i32 -1607061159, label %5
    i32 540029273, label %5
    i32 1497715271, label %5
    i32 861030210, label %5
    i32 875713112, label %5
    i32 875713089, label %5
  ]

4:                                                ; preds = %1
  br label %5

5:                                                ; preds = %1, %1, %1, %1, %1, %1, %1, %1, %1, %1, %1, %1, %1, %1, %1, %1, %1, %1, %1, %1, %1, %4
  %.0 = phi i1 [ false, %4 ], [ true, %1 ], [ true, %1 ], [ true, %1 ], [ true, %1 ], [ true, %1 ], [ true, %1 ], [ true, %1 ], [ true, %1 ], [ true, %1 ], [ true, %1 ], [ true, %1 ], [ true, %1 ], [ true, %1 ], [ true, %1 ], [ true, %1 ], [ true, %1 ], [ true, %1 ], [ true, %1 ], [ true, %1 ], [ true, %1 ], [ true, %1 ]
  ret i1 %.0
}